; Function Attrs: norecurse nounwind uwtable
define internal void @_ZL10sum_forcesN3gmx8ArrayRefINS_11BasicVectorIfEEEENS0_IKS2_EE.omp_outlined(ptr noalias nocapture noundef readonly %0, ptr noalias nocapture readnone %1, ptr nocapture noundef nonnull readonly align 4 dereferenceable(4) %2, ptr nocapture noundef nonnull readonly align 8 dereferenceable(16) %3, ptr nocapture noundef nonnull readonly align 8 dereferenceable(16) %4) #13 personality ptr @__gxx_personality_v0 {
  %6 = alloca i32, align 4
  %7 = alloca i32, align 4
  %8 = alloca i32, align 4
  %9 = alloca i32, align 4
  %10 = load i32, ptr %2, align 4
  %11 = icmp sgt i32 %10, 0
  br i1 %11, label %12, label %35

12:                                               ; preds = %5
  %13 = add nsw i32 %10, -1
  store i32 0, ptr %6, align 4
  store i32 %13, ptr %7, align 4
  store i32 1, ptr %8, align 4
  store i32 0, ptr %9, align 4
  %14 = load i32, ptr %0, align 4
  call void @__kmpc_for_static_init_4(ptr nonnull @1, i32 %14, i32 34, ptr nonnull %9, ptr nonnull %6, ptr nonnull %7, ptr nonnull %8, i32 1, i32 1)
  %15 = load i32, ptr %7, align 4
  %16 = call i32 @llvm.smin.i32(i32 %15, i32 %13)
  store i32 %16, ptr %7, align 4
  %17 = load i32, ptr %6, align 4
  %.not14 = icmp sgt i32 %17, %16
  br i1 %.not14, label %._crit_edge, label %.lr.ph.preheader

.lr.ph.preheader:                                 ; preds = %12
  %18 = sext i32 %17 to i64
  br label %.lr.ph

.lr.ph:                                           ; preds = %.lr.ph.preheader, %.lr.ph
  %indvars.iv = phi i64 [ %18, %.lr.ph.preheader ], [ %indvars.iv.next, %.lr.ph ]
  %19 = load i64, ptr %3, align 8
  %20 = inttoptr i64 %19 to ptr
  %21 = getelementptr inbounds %"class.gmx::BasicVector", ptr %20, i64 %indvars.iv
  %22 = load i64, ptr %4, align 8
  %23 = inttoptr i64 %22 to ptr
  %24 = getelementptr inbounds %"class.gmx::BasicVector", ptr %23, i64 %indvars.iv
  %25 = getelementptr inbounds i8, ptr %21, i64 8
  %26 = load float, ptr %25, align 4
  %27 = getelementptr inbounds i8, ptr %24, i64 8
  %28 = load float, ptr %27, align 4
  %29 = fadd float %26, %28
  %30 = load <2 x float>, ptr %21, align 4
  %31 = load <2 x float>, ptr %24, align 4
  %32 = fadd <2 x float> %30, %31
  store <2 x float> %32, ptr %21, align 4
  store float %29, ptr %25, align 4
  %indvars.iv.next = add nsw i64 %indvars.iv, 1
  %33 = load i32, ptr %7, align 4
  %34 = sext i32 %33 to i64
  %.not.not = icmp slt i64 %indvars.iv, %34
  br i1 %.not.not, label %.lr.ph, label %._crit_edge

._crit_edge:                                      ; preds = %.lr.ph, %12
  call void @__kmpc_for_static_fini(ptr nonnull @1, i32 %14)
  br label %35

35:                                               ; preds = %._crit_edge, %5
  ret void
}